target datalayout = "e-m:e-p270:32:32-p271:32:32-p272:64:64-i64:64-i128:128-f80:128-n8:16:32:64-S128"
target triple = "x86_64-pc-linux-gnu"

@proto_register_tdmop.ett = internal global [2 x ptr] [ptr @ett_tdmop, ptr @ett_tdmop_channel], align 16
@.str.30 = private unnamed_addr constant [15 x i8] c"TDMoP protocol\00", align 1
@.str.31 = private unnamed_addr constant [6 x i8] c"TDMoP\00", align 1
@.str.32 = private unnamed_addr constant [6 x i8] c"tdmop\00", align 1
@proto_tdmop = internal global i32 0, align 4
@tdmop_handle = internal global ptr null, align 8
@.str.33 = private unnamed_addr constant [10 x i8] c"d_channel\00", align 1
@.str.34 = private unnamed_addr constant [16 x i8] c"TDMoP D-Channel\00", align 1
@.str.35 = private unnamed_addr constant [47 x i8] c"The TDMoD channel that contains the D-Channel.\00", align 1
@pref_tdmop_d_channel = internal global i32 16, align 4
@.str.36 = private unnamed_addr constant [8 x i8] c"ts_mask\00", align 1
@.str.37 = private unnamed_addr constant [28 x i8] c"TDMoP default timeslot mask\00", align 1
@.str.38 = private unnamed_addr constant [52 x i8] c"The bitmask of channels in uncompressed TDMoP frame\00", align 1
@pref_tdmop_mask = internal global i32 -1, align 4
@.str.39 = private unnamed_addr constant [10 x i8] c"ethertype\00", align 1
@.str.40 = private unnamed_addr constant [41 x i8] c"Ethertype for TDMoP stream(Usually 0808)\00", align 1
@.str.41 = private unnamed_addr constant [56 x i8] c"The ethertype assigned to TDMoP (without IP/UDP) stream\00", align 1
@pref_tdmop_ethertype = internal global i32 0, align 4

; Function Attrs: null_pointer_is_valid sspstrong uwtable
define hidden void @proto_register_tdmop() #0 {
  %1 = alloca ptr, align 8
  call void @llvm.lifetime.start.p0(i64 8, ptr %1) #4
  %2 = call i32 @proto_register_protocol(ptr noundef @.str.30, ptr noundef @.str.31, ptr noundef @.str.32)
  store i32 %2, ptr @proto_tdmop, align 4
  %3 = load i32, ptr @proto_tdmop, align 4
  call void @proto_register_field_array(i32 noundef %3, ptr noundef @proto_register_tdmop.hf, i32 noundef 15)
  call void @proto_register_subtree_array(ptr noundef @proto_register_tdmop.ett, i32 noundef 2)
  %4 = load i32, ptr @proto_tdmop, align 4
  %5 = call ptr @register_dissector(ptr noundef @.str.32, ptr noundef @dissect_tdmop, i32 noundef %4)
  store ptr %5, ptr @tdmop_handle, align 8
  %6 = load i32, ptr @proto_tdmop, align 4
  %7 = call ptr @prefs_register_protocol(i32 noundef %6, ptr noundef @proto_reg_handoff_tdmop)
  store ptr %7, ptr %1, align 8
  %8 = load ptr, ptr %1, align 8
  call void @prefs_register_uint_preference(ptr noundef %8, ptr noundef @.str.33, ptr noundef @.str.34, ptr noundef @.str.35, i32 noundef 10, ptr noundef @pref_tdmop_d_channel)
  %9 = load ptr, ptr %1, align 8
  call void @prefs_register_uint_preference(ptr noundef %9, ptr noundef @.str.36, ptr noundef @.str.37, ptr noundef @.str.38, i32 noundef 16, ptr noundef @pref_tdmop_mask)
  %10 = load ptr, ptr %1, align 8
  call void @prefs_register_uint_preference(ptr noundef %10, ptr noundef @.str.39, ptr noundef @.str.40, ptr noundef @.str.41, i32 noundef 16, ptr noundef @pref_tdmop_ethertype)
  call void @llvm.lifetime.end.p0(i64 8, ptr %1) #4
  ret void
}