; Function Attrs: null_pointer_is_valid sspstrong uwtable
define hidden void @proto_register_tdmop() local_unnamed_addr #0 {
  %1 = tail call i32 @proto_register_protocol(ptr noundef nonnull @.str.30, ptr noundef nonnull @.str.31, ptr noundef nonnull @.str.32)
  store i32 %1, ptr @proto_tdmop, align 4
  tail call void @proto_register_field_array(i32 noundef %1, ptr noundef nonnull @proto_register_tdmop.hf, i32 noundef 15)
  tail call void @proto_register_subtree_array(ptr noundef nonnull @proto_register_tdmop.ett, i32 noundef 2)
  %2 = load i32, ptr @proto_tdmop, align 4
  %3 = tail call ptr @register_dissector(ptr noundef nonnull @.str.32, ptr noundef nonnull @dissect_tdmop, i32 noundef %2)
  store ptr %3, ptr @tdmop_handle, align 8
  %4 = load i32, ptr @proto_tdmop, align 4
  %5 = tail call ptr @prefs_register_protocol(i32 noundef %4, ptr noundef nonnull @proto_reg_handoff_tdmop)
  tail call void @prefs_register_uint_preference(ptr noundef %5, ptr noundef nonnull @.str.33, ptr noundef nonnull @.str.34, ptr noundef nonnull @.str.35, i32 noundef 10, ptr noundef nonnull @pref_tdmop_d_channel)
  tail call void @prefs_register_uint_preference(ptr noundef %5, ptr noundef nonnull @.str.36, ptr noundef nonnull @.str.37, ptr noundef nonnull @.str.38, i32 noundef 16, ptr noundef nonnull @pref_tdmop_mask)
  tail call void @prefs_register_uint_preference(ptr noundef %5, ptr noundef nonnull @.str.39, ptr noundef nonnull @.str.40, ptr noundef nonnull @.str.41, i32 noundef 16, ptr noundef nonnull @pref_tdmop_ethertype)
  ret void
}